target datalayout = "e-m:e-p270:32:32-p271:32:32-p272:64:64-i64:64-i128:128-f80:128-n8:16:32:64-S128"
target triple = "x86_64-pc-linux-gnu"

; Function Attrs: alwaysinline nounwind willreturn memory(none) uwtable
define internal zeroext i16 @av_bswap16(i16 noundef zeroext %0) #7 {
  %2 = alloca i16, align 2
  store i16 %0, ptr %2, align 2, !tbaa !49
  %3 = load i16, ptr %2, align 2, !tbaa !49
  %4 = zext i16 %3 to i32
  %5 = ashr i32 %4, 8
  %6 = load i16, ptr %2, align 2, !tbaa !49
  %7 = zext i16 %6 to i32
  %8 = shl i32 %7, 8
  %9 = or i32 %5, %8
  %10 = trunc i32 %9 to i16
  store i16 %10, ptr %2, align 2, !tbaa !49
  %11 = load i16, ptr %2, align 2, !tbaa !49
  ret i16 %11
}

; Function Attrs: alwaysinline nounwind willreturn memory(none) uwtable
define internal i32 @av_bswap32(i32 noundef %0) #7 {
  %2 = alloca i32, align 4
  store i32 %0, ptr %2, align 4, !tbaa !10
  %3 = load i32, ptr %2, align 4, !tbaa !10
  %4 = shl i32 %3, 8
  %5 = and i32 %4, 65280
  %6 = load i32, ptr %2, align 4, !tbaa !10
  %7 = lshr i32 %6, 8
  %8 = and i32 %7, 255
  %9 = or i32 %5, %8
  %10 = shl i32 %9, 16
  %11 = load i32, ptr %2, align 4, !tbaa !10
  %12 = lshr i32 %11, 16
  %13 = shl i32 %12, 8
  %14 = and i32 %13, 65280
  %15 = load i32, ptr %2, align 4, !tbaa !10
  %16 = lshr i32 %15, 16
  %17 = lshr i32 %16, 8
  %18 = and i32 %17, 255
  %19 = or i32 %14, %18
  %20 = or i32 %10, %19
  ret i32 %20
}

; Function Attrs: alwaysinline nounwind uwtable
define internal i32 @bytestream_get_be16(ptr noundef %0) #1 {
  %2 = alloca ptr, align 8
  store ptr %0, ptr %2, align 8, !tbaa !4
  %3 = load ptr, ptr %2, align 8, !tbaa !4
  %4 = load ptr, ptr %3, align 8, !tbaa !12
  %5 = getelementptr inbounds i8, ptr %4, i64 2
  store ptr %5, ptr %3, align 8, !tbaa !12
  %6 = load ptr, ptr %2, align 8, !tbaa !4
  %7 = load ptr, ptr %6, align 8, !tbaa !12
  %8 = getelementptr inbounds i8, ptr %7, i64 -2
  %9 = load i16, ptr %8, align 1, !tbaa !14
  %10 = call zeroext i16 @av_bswap16(i16 noundef zeroext %9) #12
  %11 = zext i16 %10 to i32
  ret i32 %11
}

; Function Attrs: alwaysinline nounwind uwtable
define internal i32 @bytestream_get_be32(ptr noundef %0) #1 {
  %2 = alloca ptr, align 8
  store ptr %0, ptr %2, align 8, !tbaa !4
  %3 = load ptr, ptr %2, align 8, !tbaa !4
  %4 = load ptr, ptr %3, align 8, !tbaa !12
  %5 = getelementptr inbounds i8, ptr %4, i64 4
  store ptr %5, ptr %3, align 8, !tbaa !12
  %6 = load ptr, ptr %2, align 8, !tbaa !4
  %7 = load ptr, ptr %6, align 8, !tbaa !12
  %8 = getelementptr inbounds i8, ptr %7, i64 -4
  %9 = load i32, ptr %8, align 1, !tbaa !14
  %10 = call i32 @av_bswap32(i32 noundef %9) #12
  ret i32 %10
}

; Function Attrs: nounwind uwtable
define i32 @ff_amf_match_string(ptr noundef %0, i32 noundef %1, ptr noundef %2) #0 {
  %4 = alloca i32, align 4
  %5 = alloca ptr, align 8
  %6 = alloca i32, align 4
  %7 = alloca ptr, align 8
  %8 = alloca i32, align 4
  %9 = alloca i32, align 4
  %10 = alloca i32, align 4
  %11 = alloca i32, align 4
  store ptr %0, ptr %5, align 8, !tbaa !12
  store i32 %1, ptr %6, align 4, !tbaa !10
  store ptr %2, ptr %7, align 8, !tbaa !12
  call void @llvm.lifetime.start.p0(i64 4, ptr %8) #13
  %12 = load ptr, ptr %7, align 8, !tbaa !12
  %13 = call i64 @strlen(ptr noundef %12) #14
  %14 = trunc i64 %13 to i32
  store i32 %14, ptr %8, align 4, !tbaa !10
  call void @llvm.lifetime.start.p0(i64 4, ptr %9) #13
  call void @llvm.lifetime.start.p0(i64 4, ptr %10) #13
  %15 = load i32, ptr %6, align 4, !tbaa !10
  %16 = icmp slt i32 %15, 1
  br i1 %16, label %17, label %18

17:                                               ; preds = %3
  store i32 0, ptr %4, align 4
  store i32 1, ptr %11, align 4
  br label %65

18:                                               ; preds = %3
  %19 = load ptr, ptr %5, align 8, !tbaa !12
  %20 = getelementptr inbounds nuw i8, ptr %19, i32 1
  store ptr %20, ptr %5, align 8, !tbaa !12
  %21 = load i8, ptr %19, align 1, !tbaa !14
  %22 = zext i8 %21 to i32
  store i32 %22, ptr %10, align 4, !tbaa !10
  %23 = load i32, ptr %10, align 4, !tbaa !10
  %24 = icmp ne i32 %23, 12
  br i1 %24, label %25, label %29

25:                                               ; preds = %18
  %26 = load i32, ptr %10, align 4, !tbaa !10
  %27 = icmp ne i32 %26, 2
  br i1 %27, label %28, label %29

28:                                               ; preds = %25
  store i32 0, ptr %4, align 4
  store i32 1, ptr %11, align 4
  br label %65

29:                                               ; preds = %25, %18
  %30 = load i32, ptr %10, align 4, !tbaa !10
  %31 = icmp eq i32 %30, 12
  br i1 %31, label %32, label %39

32:                                               ; preds = %29
  %33 = load i32, ptr %6, align 4, !tbaa !10
  %34 = sub nsw i32 %33, 5
  store i32 %34, ptr %6, align 4, !tbaa !10
  %35 = icmp slt i32 %34, 0
  br i1 %35, label %36, label %37

36:                                               ; preds = %32
  store i32 0, ptr %4, align 4
  store i32 1, ptr %11, align 4
  br label %65

37:                                               ; preds = %32
  %38 = call i32 @bytestream_get_be32(ptr noundef %5)
  store i32 %38, ptr %9, align 4, !tbaa !10
  br label %46

39:                                               ; preds = %29
  %40 = load i32, ptr %6, align 4, !tbaa !10
  %41 = sub nsw i32 %40, 3
  store i32 %41, ptr %6, align 4, !tbaa !10
  %42 = icmp slt i32 %41, 0
  br i1 %42, label %43, label %44

43:                                               ; preds = %39
  store i32 0, ptr %4, align 4
  store i32 1, ptr %11, align 4
  br label %65

44:                                               ; preds = %39
  %45 = call i32 @bytestream_get_be16(ptr noundef %5)
  store i32 %45, ptr %9, align 4, !tbaa !10
  br label %46

46:                                               ; preds = %44, %37
  %47 = load i32, ptr %9, align 4, !tbaa !10
  %48 = load i32, ptr %6, align 4, !tbaa !10
  %49 = icmp sgt i32 %47, %48
  br i1 %49, label %50, label %51

50:                                               ; preds = %46
  store i32 0, ptr %4, align 4
  store i32 1, ptr %11, align 4
  br label %65

51:                                               ; preds = %46
  %52 = load i32, ptr %9, align 4, !tbaa !10
  %53 = load i32, ptr %8, align 4, !tbaa !10
  %54 = icmp ne i32 %52, %53
  br i1 %54, label %55, label %56

55:                                               ; preds = %51
  store i32 0, ptr %4, align 4
  store i32 1, ptr %11, align 4
  br label %65

56:                                               ; preds = %51
  %57 = load ptr, ptr %5, align 8, !tbaa !12
  %58 = load ptr, ptr %7, align 8, !tbaa !12
  %59 = load i32, ptr %8, align 4, !tbaa !10
  %60 = sext i32 %59 to i64
  %61 = call i32 @memcmp(ptr noundef %57, ptr noundef %58, i64 noundef %60) #14
  %62 = icmp ne i32 %61, 0
  %63 = xor i1 %62, true
  %64 = zext i1 %63 to i32
  store i32 %64, ptr %4, align 4
  store i32 1, ptr %11, align 4
  br label %65

65:                                               ; preds = %56, %55, %50, %43, %36, %28, %17
  call void @llvm.lifetime.end.p0(i64 4, ptr %10) #13
  call void @llvm.lifetime.end.p0(i64 4, ptr %9) #13
  call void @llvm.lifetime.end.p0(i64 4, ptr %8) #13
  %66 = load i32, ptr %4, align 4
  ret i32 %66
}