; Function Attrs: mustprogress nofree norecurse nounwind willreturn memory(argmem: read) uwtable
define range(i32 0, 2) i32 @ff_amf_match_string(ptr noundef readonly captures(none) %0, i32 noundef %1, ptr noundef readonly captures(none) %2) local_unnamed_addr #10 {
  %4 = tail call i64 @strlen(ptr noundef nonnull dereferenceable(1) %2) #15
  %5 = trunc i64 %4 to i32
  %6 = icmp slt i32 %1, 1
  br i1 %6, label %30, label %7

7:                                                ; preds = %3
  %8 = getelementptr inbounds nuw i8, ptr %0, i64 1
  %9 = load i8, ptr %0, align 1, !tbaa !9
  switch i8 %9, label %30 [
    i8 12, label %10
    i8 2, label %17
  ]

10:                                               ; preds = %7
  %11 = icmp samesign ult i32 %1, 5
  br i1 %11, label %30, label %12

12:                                               ; preds = %10
  %13 = add nsw i32 %1, -5
  %14 = getelementptr inbounds nuw i8, ptr %0, i64 5
  %15 = load i32, ptr %8, align 1, !tbaa !9
  %16 = tail call i32 @llvm.bswap.i32(i32 %15)
  br label %25

17:                                               ; preds = %7
  %18 = icmp samesign ult i32 %1, 3
  br i1 %18, label %30, label %19

19:                                               ; preds = %17
  %20 = add nsw i32 %1, -3
  %21 = getelementptr inbounds nuw i8, ptr %0, i64 3
  %22 = load i16, ptr %8, align 1, !tbaa !9
  %23 = tail call i16 @llvm.bswap.i16(i16 %22)
  %24 = zext i16 %23 to i32
  br label %25

25:                                               ; preds = %19, %12
  %.023 = phi ptr [ %21, %19 ], [ %14, %12 ]
  %.015 = phi i32 [ %20, %19 ], [ %13, %12 ]
  %.014 = phi i32 [ %24, %19 ], [ %16, %12 ]
  %26 = icmp sle i32 %.014, %.015
  %.not = icmp eq i32 %.014, %5
  %or.cond = select i1 %26, i1 %.not, i1 false
  br i1 %or.cond, label %27, label %30

27:                                               ; preds = %25
  %sext = shl i64 %4, 32
  %28 = ashr exact i64 %sext, 32
  %bcmp = tail call i32 @bcmp(ptr nonnull %.023, ptr nonnull %2, i64 %28)
  %.not20 = icmp eq i32 %bcmp, 0
  %29 = zext i1 %.not20 to i32
  br label %30

30:                                               ; preds = %25, %17, %10, %7, %3, %27
  %.0 = phi i32 [ %29, %27 ], [ 0, %3 ], [ 0, %7 ], [ 0, %10 ], [ 0, %17 ], [ 0, %25 ]
  ret i32 %.0
}